target datalayout = "e-m:e-p270:32:32-p271:32:32-p272:64:64-i64:64-i128:128-f80:128-n8:16:32:64-S128"
target triple = "x86_64-pc-linux-gnu"

%struct.Scheduler = type { ptr, ptr, i32, ptr, i32, i32, %union.pthread_mutex_t, i32, i32, %union.pthread_mutex_t, %union.pthread_cond_t, ptr, i32, ptr, i32, ptr, i32, ptr, i32, ptr, i32, i32, i32, %union.pthread_mutex_t, i64 }
%union.pthread_cond_t = type { %struct.__pthread_cond_s }
%struct.__pthread_cond_s = type { %union.__atomic_wide_counter, %union.__atomic_wide_counter, [2 x i32], [2 x i32], i32, i32, [2 x i32] }
%union.__atomic_wide_counter = type { i64 }
%union.pthread_mutex_t = type { %struct.__pthread_mutex_s }
%struct.__pthread_mutex_s = type { i32, i32, i32, i32, i32, i16, i16, %struct.__pthread_internal_list }
%struct.__pthread_internal_list = type { ptr, ptr }
%struct.SchTask = type { ptr, %struct.SchedulerNode, ptr, ptr, i64, i32 }
%struct.SchedulerNode = type { i32, i32, i32 }
%struct.SchMux = type { ptr, ptr, i32, i32, ptr, %struct.SchTask, i32, ptr, i32, ptr }
%struct.SchMuxStream = type { %struct.SchedulerNode, %struct.SchedulerNode, ptr, i32, %struct.PreMuxQueue, i32, i64, i32 }
%struct.PreMuxQueue = type { ptr, i32, i64, i64 }

@.str = private unnamed_addr constant [30 x i8] c"Assertion %s failed at %s:%d\0A\00", align 1
@.str.1 = private unnamed_addr constant [22 x i8] c"mux_idx < sch->nb_mux\00", align 1
@.str.2 = private unnamed_addr constant [23 x i8] c"fftools/ffmpeg_sched.c\00", align 1
@.str.4 = private unnamed_addr constant [22 x i8] c"dec_idx < sch->nb_dec\00", align 1
@.str.22 = private unnamed_addr constant [29 x i8] c"stream_idx < mux->nb_streams\00", align 1

; Function Attrs: nounwind uwtable
define i32 @sch_mux_sub_heartbeat_add(ptr noundef %0, i32 noundef %1, i32 noundef %2, i32 noundef %3) #0 {
  %5 = alloca i32, align 4
  %6 = alloca ptr, align 8
  %7 = alloca i32, align 4
  %8 = alloca i32, align 4
  %9 = alloca i32, align 4
  %10 = alloca ptr, align 8
  %11 = alloca ptr, align 8
  %12 = alloca i32, align 4
  %13 = alloca i32, align 4
  store ptr %0, ptr %6, align 8, !tbaa !10
  store i32 %1, ptr %7, align 4, !tbaa !12
  store i32 %2, ptr %8, align 4, !tbaa !12
  store i32 %3, ptr %9, align 4, !tbaa !12
  call void @llvm.lifetime.start.p0(i64 8, ptr %10) #9
  call void @llvm.lifetime.start.p0(i64 8, ptr %11) #9
  call void @llvm.lifetime.start.p0(i64 4, ptr %12) #9
  store i32 0, ptr %12, align 4, !tbaa !12
  br label %14

14:                                               ; preds = %4
  %15 = load i32, ptr %7, align 4, !tbaa !12
  %16 = load ptr, ptr %6, align 8, !tbaa !10
  %17 = getelementptr inbounds nuw %struct.Scheduler, ptr %16, i32 0, i32 4
  %18 = load i32, ptr %17, align 8, !tbaa !39
  %19 = icmp ult i32 %15, %18
  br i1 %19, label %21, label %20

20:                                               ; preds = %14
  call void (ptr, i32, ptr, ...) @av_log(ptr noundef null, i32 noundef 0, ptr noundef @.str, ptr noundef @.str.1, ptr noundef @.str.2, i32 noundef 1245)
  call void @abort() #10
  unreachable

21:                                               ; preds = %14
  br label %22

22:                                               ; preds = %21
  br label %23

23:                                               ; preds = %22
  %24 = load ptr, ptr %6, align 8, !tbaa !10
  %25 = getelementptr inbounds nuw %struct.Scheduler, ptr %24, i32 0, i32 3
  %26 = load ptr, ptr %25, align 8, !tbaa !40
  %27 = load i32, ptr %7, align 4, !tbaa !12
  %28 = zext i32 %27 to i64
  %29 = getelementptr inbounds nuw %struct.SchMux, ptr %26, i64 %28
  store ptr %29, ptr %10, align 8, !tbaa !41
  br label %30

30:                                               ; preds = %23
  %31 = load i32, ptr %8, align 4, !tbaa !12
  %32 = load ptr, ptr %10, align 8, !tbaa !41
  %33 = getelementptr inbounds nuw %struct.SchMux, ptr %32, i32 0, i32 2
  %34 = load i32, ptr %33, align 8, !tbaa !42
  %35 = icmp ult i32 %31, %34
  br i1 %35, label %37, label %36

36:                                               ; preds = %30
  call void (ptr, i32, ptr, ...) @av_log(ptr noundef null, i32 noundef 0, ptr noundef @.str, ptr noundef @.str.22, ptr noundef @.str.2, i32 noundef 1248)
  call void @abort() #10
  unreachable

37:                                               ; preds = %30
  br label %38

38:                                               ; preds = %37
  br label %39

39:                                               ; preds = %38
  %40 = load ptr, ptr %10, align 8, !tbaa !41
  %41 = getelementptr inbounds nuw %struct.SchMux, ptr %40, i32 0, i32 1
  %42 = load ptr, ptr %41, align 8, !tbaa !46
  %43 = load i32, ptr %8, align 4, !tbaa !12
  %44 = zext i32 %43 to i64
  %45 = getelementptr inbounds nuw %struct.SchMuxStream, ptr %42, i64 %44
  store ptr %45, ptr %11, align 8, !tbaa !47
  %46 = load ptr, ptr %11, align 8, !tbaa !47
  %47 = getelementptr inbounds nuw %struct.SchMuxStream, ptr %46, i32 0, i32 2
  %48 = load ptr, ptr %11, align 8, !tbaa !47
  %49 = getelementptr inbounds nuw %struct.SchMuxStream, ptr %48, i32 0, i32 3
  %50 = load ptr, ptr %11, align 8, !tbaa !47
  %51 = getelementptr inbounds nuw %struct.SchMuxStream, ptr %50, i32 0, i32 3
  %52 = load i32, ptr %51, align 8, !tbaa !163
  %53 = add i32 %52, 1
  %54 = call i32 @grow_array(ptr noundef %47, i32 noundef 4, ptr noundef %49, i32 noundef %53)
  store i32 %54, ptr %12, align 4, !tbaa !12
  %55 = load i32, ptr %12, align 4, !tbaa !12
  %56 = icmp slt i32 %55, 0
  br i1 %56, label %57, label %59

57:                                               ; preds = %39
  %58 = load i32, ptr %12, align 4, !tbaa !12
  store i32 %58, ptr %5, align 4
  store i32 1, ptr %13, align 4
  br label %95

59:                                               ; preds = %39
  br label %60

60:                                               ; preds = %59
  %61 = load i32, ptr %9, align 4, !tbaa !12
  %62 = load ptr, ptr %6, align 8, !tbaa !10
  %63 = getelementptr inbounds nuw %struct.Scheduler, ptr %62, i32 0, i32 12
  %64 = load i32, ptr %63, align 8, !tbaa !56
  %65 = icmp ult i32 %61, %64
  br i1 %65, label %67, label %66

66:                                               ; preds = %60
  call void (ptr, i32, ptr, ...) @av_log(ptr noundef null, i32 noundef 0, ptr noundef @.str, ptr noundef @.str.4, ptr noundef @.str.2, i32 noundef 1255)
  call void @abort() #10
  unreachable

67:                                               ; preds = %60
  br label %68

68:                                               ; preds = %67
  br label %69

69:                                               ; preds = %68
  %70 = load i32, ptr %9, align 4, !tbaa !12
  %71 = load ptr, ptr %11, align 8, !tbaa !47
  %72 = getelementptr inbounds nuw %struct.SchMuxStream, ptr %71, i32 0, i32 2
  %73 = load ptr, ptr %72, align 8, !tbaa !164
  %74 = load ptr, ptr %11, align 8, !tbaa !47
  %75 = getelementptr inbounds nuw %struct.SchMuxStream, ptr %74, i32 0, i32 3
  %76 = load i32, ptr %75, align 8, !tbaa !163
  %77 = sub i32 %76, 1
  %78 = zext i32 %77 to i64
  %79 = getelementptr inbounds nuw i32, ptr %73, i64 %78
  store i32 %70, ptr %79, align 4, !tbaa !12
  %80 = load ptr, ptr %10, align 8, !tbaa !41
  %81 = getelementptr inbounds nuw %struct.SchMux, ptr %80, i32 0, i32 9
  %82 = load ptr, ptr %81, align 8, !tbaa !165
  %83 = icmp ne ptr %82, null
  br i1 %83, label %94, label %84

84:                                               ; preds = %69
  %85 = call ptr @av_packet_alloc()
  %86 = load ptr, ptr %10, align 8, !tbaa !41
  %87 = getelementptr inbounds nuw %struct.SchMux, ptr %86, i32 0, i32 9
  store ptr %85, ptr %87, align 8, !tbaa !165
  %88 = load ptr, ptr %10, align 8, !tbaa !41
  %89 = getelementptr inbounds nuw %struct.SchMux, ptr %88, i32 0, i32 9
  %90 = load ptr, ptr %89, align 8, !tbaa !165
  %91 = icmp ne ptr %90, null
  br i1 %91, label %93, label %92

92:                                               ; preds = %84
  store i32 -12, ptr %5, align 4
  store i32 1, ptr %13, align 4
  br label %95

93:                                               ; preds = %84
  br label %94

94:                                               ; preds = %93, %69
  store i32 0, ptr %5, align 4
  store i32 1, ptr %13, align 4
  br label %95

95:                                               ; preds = %94, %92, %57
  call void @llvm.lifetime.end.p0(i64 4, ptr %12) #9
  call void @llvm.lifetime.end.p0(i64 8, ptr %11) #9
  call void @llvm.lifetime.end.p0(i64 8, ptr %10) #9
  %96 = load i32, ptr %5, align 4
  ret i32 %96
}