; Function Attrs: nounwind uwtable
define range(i32 -2147483648, 1) i32 @sch_mux_sub_heartbeat_add(ptr noundef readonly captures(none) %0, i32 noundef %1, i32 noundef %2, i32 noundef %3) local_unnamed_addr #0 {
  %5 = getelementptr inbounds nuw i8, ptr %0, i64 32
  %6 = load i32, ptr %5, align 8, !tbaa !20
  %7 = icmp ult i32 %1, %6
  br i1 %7, label %9, label %8

8:                                                ; preds = %4
  tail call void (ptr, i32, ptr, ...) @av_log(ptr noundef null, i32 noundef 0, ptr noundef nonnull @.str, ptr noundef nonnull @.str.1, ptr noundef nonnull @.str.2, i32 noundef 1245) #9
  tail call void @abort() #10
  unreachable

9:                                                ; preds = %4
  %10 = getelementptr inbounds nuw i8, ptr %0, i64 24
  %11 = load ptr, ptr %10, align 8, !tbaa !35
  %12 = zext i32 %1 to i64
  %13 = getelementptr inbounds nuw %struct.SchMux, ptr %11, i64 %12
  %14 = getelementptr inbounds nuw i8, ptr %13, i64 16
  %15 = load i32, ptr %14, align 8, !tbaa !36
  %16 = icmp ult i32 %2, %15
  br i1 %16, label %18, label %17

17:                                               ; preds = %9
  tail call void (ptr, i32, ptr, ...) @av_log(ptr noundef null, i32 noundef 0, ptr noundef nonnull @.str, ptr noundef nonnull @.str.22, ptr noundef nonnull @.str.2, i32 noundef 1248) #9
  tail call void @abort() #10
  unreachable

18:                                               ; preds = %9
  %19 = getelementptr inbounds nuw i8, ptr %13, i64 8
  %20 = load ptr, ptr %19, align 8, !tbaa !41
  %21 = zext i32 %2 to i64
  %22 = getelementptr inbounds nuw %struct.SchMuxStream, ptr %20, i64 %21
  %23 = getelementptr inbounds nuw i8, ptr %22, i64 24
  %24 = getelementptr inbounds nuw i8, ptr %22, i64 32
  %25 = load i32, ptr %24, align 8, !tbaa !140
  %26 = add i32 %25, 1
  %27 = tail call i32 @grow_array(ptr noundef nonnull %23, i32 noundef 4, ptr noundef nonnull %24, i32 noundef %26) #9
  %28 = icmp slt i32 %27, 0
  br i1 %28, label %45, label %29

29:                                               ; preds = %18
  %30 = getelementptr inbounds nuw i8, ptr %0, i64 184
  %31 = load i32, ptr %30, align 8, !tbaa !34
  %32 = icmp ult i32 %3, %31
  br i1 %32, label %34, label %33

33:                                               ; preds = %29
  tail call void (ptr, i32, ptr, ...) @av_log(ptr noundef null, i32 noundef 0, ptr noundef nonnull @.str, ptr noundef nonnull @.str.4, ptr noundef nonnull @.str.2, i32 noundef 1255) #9
  tail call void @abort() #10
  unreachable

34:                                               ; preds = %29
  %35 = load ptr, ptr %23, align 8, !tbaa !141
  %36 = load i32, ptr %24, align 8, !tbaa !140
  %37 = add i32 %36, -1
  %38 = zext i32 %37 to i64
  %39 = getelementptr inbounds nuw i32, ptr %35, i64 %38
  store i32 %3, ptr %39, align 4, !tbaa !68
  %40 = getelementptr inbounds nuw i8, ptr %13, i64 112
  %41 = load ptr, ptr %40, align 8, !tbaa !142
  %.not = icmp eq ptr %41, null
  br i1 %.not, label %42, label %44

42:                                               ; preds = %34
  %43 = tail call ptr @av_packet_alloc() #9
  store ptr %43, ptr %40, align 8, !tbaa !142
  %.not25 = icmp eq ptr %43, null
  br i1 %.not25, label %45, label %44

44:                                               ; preds = %42, %34
  br label %45

45:                                               ; preds = %42, %18, %44
  %.0 = phi i32 [ 0, %44 ], [ %27, %18 ], [ -12, %42 ]
  ret i32 %.0
}